; Function Attrs: nounwind sspstrong uwtable
define internal i64 @rb_gzreader_gets(i32 noundef %0, ptr noundef readonly captures(none) %1, i64 noundef %2) #0 {
  %4 = tail call fastcc i64 @gzreader_gets(i32 noundef %0, ptr noundef %1, i64 noundef %2)
  %5 = icmp eq i64 %4, 4
  br i1 %5, label %7, label %6

6:                                                ; preds = %3
  tail call void @rb_lastline_set(i64 noundef %4) #18
  br label %7

7:                                                ; preds = %6, %3
  ret i64 %4
}